; Function Attrs: null_pointer_is_valid sspstrong uwtable
define internal void @dtap_sm_mod_pdp_req_net(ptr noundef %0, ptr noundef %1, ptr noundef initializes((348, 352), (384, 388)) %2, i32 noundef %3, i32 noundef %4) #1 {
  %6 = getelementptr inbounds nuw i8, ptr %2, i64 348
  store i32 -1, ptr %6, align 4
  %7 = getelementptr inbounds nuw i8, ptr %2, i64 384
  store i32 1, ptr %7, align 8
  %8 = icmp sgt i32 %4, 0
  br i1 %8, label %9, label %15

9:                                                ; preds = %5
  %10 = tail call zeroext i16 @elem_v(ptr noundef %0, ptr noundef %1, ptr noundef %2, i32 noundef 5, i32 noundef 68, i32 noundef %3, ptr noundef null)
  %.not = icmp eq i16 %10, 0
  br i1 %.not, label %15, label %11

11:                                               ; preds = %9
  %12 = zext i16 %10 to i32
  %13 = add i32 %3, %12
  %14 = sub nsw i32 %4, %12
  br label %18

15:                                               ; preds = %9, %5
  %16 = tail call ptr @get_gsm_a_msg_string(i32 noundef 5, i32 noundef 68)
  %17 = tail call ptr (ptr, ptr, ptr, ptr, i32, i32, ptr, ...) @proto_tree_add_expert_format(ptr noundef %1, ptr noundef %2, ptr noundef nonnull @ei_gsm_a_gm_missing_mandatory_element, ptr noundef %0, i32 noundef %3, i32 noundef 0, ptr noundef nonnull @.str.1095, ptr noundef %16, ptr noundef nonnull @.str.83)
  br label %18

18:                                               ; preds = %15, %11
  %.0130 = phi i32 [ %13, %11 ], [ %3, %15 ]
  %.0 = phi i32 [ %14, %11 ], [ %4, %15 ]
  %19 = icmp sgt i32 %.0, 0
  br i1 %19, label %20, label %26

20:                                               ; preds = %18
  %21 = tail call zeroext i16 @elem_v(ptr noundef %0, ptr noundef %1, ptr noundef %2, i32 noundef 5, i32 noundef 54, i32 noundef %.0130, ptr noundef nonnull @.str.1128)
  %.not153 = icmp eq i16 %21, 0
  br i1 %.not153, label %26, label %22

22:                                               ; preds = %20
  %23 = zext i16 %21 to i32
  %24 = add i32 %.0130, %23
  %25 = sub nsw i32 %.0, %23
  br label %29

26:                                               ; preds = %20, %18
  %27 = tail call ptr @get_gsm_a_msg_string(i32 noundef 5, i32 noundef 54)
  %28 = tail call ptr (ptr, ptr, ptr, ptr, i32, i32, ptr, ...) @proto_tree_add_expert_format(ptr noundef %1, ptr noundef %2, ptr noundef nonnull @ei_gsm_a_gm_missing_mandatory_element, ptr noundef %0, i32 noundef %.0130, i32 noundef 0, ptr noundef nonnull @.str.1095, ptr noundef %27, ptr noundef nonnull @.str.1128)
  br label %29

29:                                               ; preds = %26, %22
  %.1131 = phi i32 [ %24, %22 ], [ %.0130, %26 ]
  %.1 = phi i32 [ %25, %22 ], [ %.0, %26 ]
  %30 = icmp sgt i32 %.1, 0
  br i1 %30, label %31, label %37

31:                                               ; preds = %29
  %32 = tail call zeroext i16 @elem_lv(ptr noundef %0, ptr noundef %1, ptr noundef %2, i32 noundef 5, i32 noundef 48, i32 noundef %.1131, i32 noundef %.1, ptr noundef nonnull @.str.1139)
  %.not154 = icmp eq i16 %32, 0
  br i1 %.not154, label %37, label %33

33:                                               ; preds = %31
  %34 = zext i16 %32 to i32
  %35 = add i32 %.1131, %34
  %36 = sub nsw i32 %.1, %34
  br label %40

37:                                               ; preds = %31, %29
  %38 = tail call ptr @get_gsm_a_msg_string(i32 noundef 5, i32 noundef 48)
  %39 = tail call ptr (ptr, ptr, ptr, ptr, i32, i32, ptr, ...) @proto_tree_add_expert_format(ptr noundef %1, ptr noundef %2, ptr noundef nonnull @ei_gsm_a_gm_missing_mandatory_element, ptr noundef %0, i32 noundef %.1131, i32 noundef 0, ptr noundef nonnull @.str.1095, ptr noundef %38, ptr noundef nonnull @.str.1139)
  br label %40

40:                                               ; preds = %37, %33
  %.2132 = phi i32 [ %35, %33 ], [ %.1131, %37 ]
  %.2 = phi i32 [ %36, %33 ], [ %.1, %37 ]
  %41 = icmp slt i32 %.2, 1
  br i1 %41, label %91, label %42

42:                                               ; preds = %40
  %43 = tail call zeroext i16 @elem_tlv(ptr noundef %0, ptr noundef %1, ptr noundef %2, i8 noundef zeroext 43, i32 noundef 5, i32 noundef 47, i32 noundef %.2132, i32 noundef %.2, ptr noundef nonnull @.str.1133)
  %44 = zext i16 %43 to i32
  %45 = sub nsw i32 %.2, %44
  %46 = icmp slt i32 %45, 1
  br i1 %46, label %91, label %47

47:                                               ; preds = %42
  %48 = add i32 %.2132, %44
  %49 = tail call zeroext i16 @elem_tlv(ptr noundef %0, ptr noundef %1, ptr noundef %2, i8 noundef zeroext 52, i32 noundef 5, i32 noundef 56, i32 noundef %48, i32 noundef %45, ptr noundef null)
  %50 = zext i16 %49 to i32
  %51 = sub nsw i32 %45, %50
  %52 = icmp slt i32 %51, 1
  br i1 %52, label %91, label %53

53:                                               ; preds = %47
  %54 = add i32 %48, %50
  %55 = tail call zeroext i16 @elem_tlv(ptr noundef %0, ptr noundef %1, ptr noundef %2, i8 noundef zeroext 39, i32 noundef 5, i32 noundef 45, i32 noundef %54, i32 noundef %51, ptr noundef null)
  %56 = zext i16 %55 to i32
  %57 = sub nsw i32 %51, %56
  %58 = icmp slt i32 %57, 1
  br i1 %58, label %91, label %59

59:                                               ; preds = %53
  %60 = add i32 %54, %56
  %61 = tail call zeroext i16 @elem_tlv(ptr noundef %0, ptr noundef %1, ptr noundef %2, i8 noundef zeroext 54, i32 noundef 5, i32 noundef 57, i32 noundef %60, i32 noundef %57, ptr noundef null)
  %62 = zext i16 %61 to i32
  %63 = sub nsw i32 %57, %62
  %64 = icmp slt i32 %63, 1
  br i1 %64, label %91, label %65

65:                                               ; preds = %59
  %66 = add i32 %60, %62
  %67 = tail call zeroext i16 @elem_tv_short(ptr noundef %0, ptr noundef %1, ptr noundef %2, i8 noundef zeroext -64, i32 noundef 5, i32 noundef 65, i32 noundef %66, ptr noundef nonnull @.str.1135)
  %68 = zext i16 %67 to i32
  %69 = sub nsw i32 %63, %68
  %70 = icmp slt i32 %69, 1
  br i1 %70, label %91, label %71

71:                                               ; preds = %65
  %72 = add i32 %66, %68
  %73 = tail call zeroext i16 @elem_tlv(ptr noundef %0, ptr noundef %1, ptr noundef %2, i8 noundef zeroext 51, i32 noundef 5, i32 noundef 66, i32 noundef %72, i32 noundef %69, ptr noundef null)
  %74 = zext i16 %73 to i32
  %75 = sub nsw i32 %69, %74
  %76 = icmp slt i32 %75, 1
  br i1 %76, label %91, label %77

77:                                               ; preds = %71
  %78 = add i32 %72, %74
  %79 = tail call zeroext i16 @elem_tlv_e(ptr noundef %0, ptr noundef %1, ptr noundef %2, i8 noundef zeroext 123, i32 noundef 5, i32 noundef 46, i32 noundef %78, i32 noundef %75, ptr noundef null)
  %80 = zext i16 %79 to i32
  %81 = sub nsw i32 %75, %80
  %82 = icmp slt i32 %81, 1
  br i1 %82, label %91, label %83

83:                                               ; preds = %77
  %84 = add i32 %78, %80
  %85 = tail call zeroext i16 @elem_tlv(ptr noundef %0, ptr noundef %1, ptr noundef %2, i8 noundef zeroext 92, i32 noundef 5, i32 noundef 50, i32 noundef %84, i32 noundef %81, ptr noundef null)
  %86 = zext i16 %85 to i32
  %.not163 = icmp eq i32 %81, %86
  br i1 %.not163, label %91, label %87

87:                                               ; preds = %83
  %88 = sub nsw i32 %81, %86
  %89 = add i32 %84, %86
  %90 = tail call ptr @proto_tree_add_expert(ptr noundef %1, ptr noundef %2, ptr noundef nonnull @ei_gsm_a_gm_extraneous_data, ptr noundef %0, i32 noundef %89, i32 noundef %88)
  br label %91

91:                                               ; preds = %83, %87, %77, %71, %65, %59, %53, %47, %42, %40
  ret void
}